; Function Attrs: mustprogress nofree norecurse nosync nounwind willreturn memory(argmem: read) uwtable
define dso_local noundef zeroext i1 @_ZN18btSimpleBroadphase15testAabbOverlapEP17btBroadphaseProxyS1_(ptr nocapture noundef nonnull readnone align 8 dereferenceable(64) %this, ptr nocapture noundef readonly %proxy0, ptr nocapture noundef readonly %proxy1) local_unnamed_addr #9 align 2 {
entry:
  %m_aabbMin.i = getelementptr inbounds i8, ptr %proxy0, i64 20
  %0 = load float, ptr %m_aabbMin.i, align 4
  %m_aabbMax.i = getelementptr inbounds i8, ptr %proxy1, i64 36
  %1 = load float, ptr %m_aabbMax.i, align 4
  %cmp.i = fcmp ugt float %0, %1
  br i1 %cmp.i, label %_ZN18btSimpleBroadphase11aabbOverlapEP23btSimpleBroadphaseProxyS1_.exit, label %land.lhs.true.i

land.lhs.true.i:                                  ; preds = %entry
  %m_aabbMin3.i = getelementptr inbounds i8, ptr %proxy1, i64 20
  %2 = load float, ptr %m_aabbMin3.i, align 4
  %m_aabbMax6.i = getelementptr inbounds i8, ptr %proxy0, i64 36
  %3 = load float, ptr %m_aabbMax6.i, align 4
  %cmp9.i = fcmp ugt float %2, %3
  br i1 %cmp9.i, label %_ZN18btSimpleBroadphase11aabbOverlapEP23btSimpleBroadphaseProxyS1_.exit, label %land.lhs.true10.i

land.lhs.true10.i:                                ; preds = %land.lhs.true.i
  %arrayidx13.i = getelementptr inbounds i8, ptr %proxy0, i64 24
  %4 = load float, ptr %arrayidx13.i, align 4
  %arrayidx16.i = getelementptr inbounds i8, ptr %proxy1, i64 40
  %5 = load float, ptr %arrayidx16.i, align 4
  %cmp17.i = fcmp ugt float %4, %5
  br i1 %cmp17.i, label %_ZN18btSimpleBroadphase11aabbOverlapEP23btSimpleBroadphaseProxyS1_.exit, label %land.lhs.true18.i

land.lhs.true18.i:                                ; preds = %land.lhs.true10.i
  %arrayidx21.i = getelementptr inbounds i8, ptr %proxy1, i64 24
  %6 = load float, ptr %arrayidx21.i, align 4
  %arrayidx24.i = getelementptr inbounds i8, ptr %proxy0, i64 40
  %7 = load float, ptr %arrayidx24.i, align 4
  %cmp25.i = fcmp ugt float %6, %7
  br i1 %cmp25.i, label %_ZN18btSimpleBroadphase11aabbOverlapEP23btSimpleBroadphaseProxyS1_.exit, label %land.lhs.true26.i

land.lhs.true26.i:                                ; preds = %land.lhs.true18.i
  %arrayidx29.i = getelementptr inbounds i8, ptr %proxy0, i64 28
  %8 = load float, ptr %arrayidx29.i, align 4
  %arrayidx32.i = getelementptr inbounds i8, ptr %proxy1, i64 44
  %9 = load float, ptr %arrayidx32.i, align 4
  %cmp33.i = fcmp ugt float %8, %9
  br i1 %cmp33.i, label %_ZN18btSimpleBroadphase11aabbOverlapEP23btSimpleBroadphaseProxyS1_.exit, label %land.rhs.i

land.rhs.i:                                       ; preds = %land.lhs.true26.i
  %arrayidx36.i = getelementptr inbounds i8, ptr %proxy1, i64 28
  %10 = load float, ptr %arrayidx36.i, align 4
  %arrayidx39.i = getelementptr inbounds i8, ptr %proxy0, i64 44
  %11 = load float, ptr %arrayidx39.i, align 4
  %cmp40.i = fcmp ole float %10, %11
  br label %_ZN18btSimpleBroadphase11aabbOverlapEP23btSimpleBroadphaseProxyS1_.exit

_ZN18btSimpleBroadphase11aabbOverlapEP23btSimpleBroadphaseProxyS1_.exit: ; preds = %entry, %land.lhs.true.i, %land.lhs.true10.i, %land.lhs.true18.i, %land.lhs.true26.i, %land.rhs.i
  %12 = phi i1 [ false, %land.lhs.true26.i ], [ false, %land.lhs.true18.i ], [ false, %land.lhs.true10.i ], [ false, %land.lhs.true.i ], [ false, %entry ], [ %cmp40.i, %land.rhs.i ]
  ret i1 %12
}